target datalayout = "e-m:e-p270:32:32-p271:32:32-p272:64:64-i64:64-i128:128-f80:128-n8:16:32:64-S128"
target triple = "x86_64-pc-linux-gnu"

%struct.rb_data_type_struct = type { ptr, %struct.anon.19, ptr, ptr, i64 }
%struct.anon.19 = type { ptr, ptr, ptr, ptr, [1 x ptr] }
%struct.ccan_list_head = type { %struct.ccan_list_node }
%struct.ccan_list_node = type { ptr, ptr }
%struct.RBasic = type { i64, i64 }
%struct.RTypedData = type { %struct.RBasic, ptr, i64, ptr }
%struct.rb_condvar = type { %struct.ccan_list_head, i64 }

@cv_data_type = internal constant %struct.rb_data_type_struct { ptr @.str.287, %struct.anon.19 { ptr null, ptr inttoptr (i64 -1 to ptr), ptr @condvar_memsize, ptr null, [1 x ptr] zeroinitializer }, ptr null, ptr null, i64 33 }, align 8

; Function Attrs: inlinehint nounwind sspstrong uwtable
define internal zeroext i1 @RTYPEDDATA_EMBEDDED_P(i64 noundef %0) #1 {
  %2 = alloca i64, align 8
  store i64 %0, ptr %2, align 8, !tbaa !22
  %3 = load i64, ptr %2, align 8, !tbaa !22
  %4 = inttoptr i64 %3 to ptr
  %5 = getelementptr inbounds nuw %struct.RTypedData, ptr %4, i32 0, i32 2
  %6 = load i64, ptr %5, align 8, !tbaa !440
  %7 = and i64 %6, 2
  %8 = icmp ne i64 %7, 0
  ret i1 %8
}

; Function Attrs: inlinehint nounwind sspstrong uwtable
define internal void @ccan_list_head_init(ptr noundef %0) #1 {
  %2 = alloca ptr, align 8
  store ptr %0, ptr %2, align 8, !tbaa !57
  %3 = load ptr, ptr %2, align 8, !tbaa !57
  %4 = getelementptr inbounds nuw %struct.ccan_list_head, ptr %3, i32 0, i32 0
  %5 = load ptr, ptr %2, align 8, !tbaa !57
  %6 = getelementptr inbounds nuw %struct.ccan_list_head, ptr %5, i32 0, i32 0
  %7 = getelementptr inbounds nuw %struct.ccan_list_node, ptr %6, i32 0, i32 1
  store ptr %4, ptr %7, align 8, !tbaa !59
  %8 = load ptr, ptr %2, align 8, !tbaa !57
  %9 = getelementptr inbounds nuw %struct.ccan_list_head, ptr %8, i32 0, i32 0
  %10 = getelementptr inbounds nuw %struct.ccan_list_node, ptr %9, i32 0, i32 0
  store ptr %4, ptr %10, align 8, !tbaa !60
  ret void
}

; Function Attrs: inlinehint nounwind sspstrong uwtable
define internal ptr @RTYPEDDATA_GET_DATA(i64 noundef %0) #1 {
  %2 = alloca i64, align 8
  %3 = alloca i64, align 8
  store i64 %0, ptr %2, align 8, !tbaa !22
  call void @llvm.lifetime.start.p0(i64 8, ptr %3) #16
  store i64 32, ptr %3, align 8, !tbaa !22
  %4 = load i64, ptr %2, align 8, !tbaa !22
  %5 = call zeroext i1 @RTYPEDDATA_EMBEDDED_P(i64 noundef %4)
  br i1 %5, label %6, label %10

6:                                                ; preds = %1
  %7 = load i64, ptr %2, align 8, !tbaa !22
  %8 = inttoptr i64 %7 to ptr
  %9 = getelementptr i8, ptr %8, i64 32
  br label %15

10:                                               ; preds = %1
  %11 = load i64, ptr %2, align 8, !tbaa !22
  %12 = inttoptr i64 %11 to ptr
  %13 = getelementptr inbounds nuw %struct.RTypedData, ptr %12, i32 0, i32 3
  %14 = load ptr, ptr %13, align 8, !tbaa !437
  br label %15

15:                                               ; preds = %10, %6
  %16 = phi ptr [ %9, %6 ], [ %14, %10 ]
  call void @llvm.lifetime.end.p0(i64 8, ptr %3) #16
  ret ptr %16
}

; Function Attrs: nounwind sspstrong uwtable
define internal i64 @condvar_alloc(i64 noundef %0) #0 {
  %2 = alloca i64, align 8
  %3 = alloca ptr, align 8
  %4 = alloca i64, align 8
  %5 = alloca i64, align 8
  %6 = alloca i64, align 8
  store i64 %0, ptr %2, align 8, !tbaa !22
  call void @llvm.lifetime.start.p0(i64 8, ptr %3) #16
  call void @llvm.lifetime.start.p0(i64 8, ptr %4) #16
  call void @llvm.lifetime.start.p0(i64 8, ptr %5) #16
  %7 = load i64, ptr %2, align 8, !tbaa !22
  %8 = call i64 @rb_data_typed_object_zalloc(i64 noundef %7, i64 noundef 24, ptr noundef @cv_data_type)
  store i64 %8, ptr %5, align 8, !tbaa !22
  %9 = load i64, ptr %5, align 8, !tbaa !22
  %10 = call ptr @RTYPEDDATA_GET_DATA(i64 noundef %9)
  store ptr %10, ptr %3, align 8, !tbaa !550
  %11 = load i64, ptr %5, align 8, !tbaa !22
  store i64 %11, ptr %6, align 8, !tbaa !22
  call void @llvm.lifetime.end.p0(i64 8, ptr %5) #16
  %12 = load i64, ptr %6, align 8, !tbaa !22
  store i64 %12, ptr %4, align 8, !tbaa !22
  %13 = load ptr, ptr %3, align 8, !tbaa !550
  %14 = getelementptr inbounds nuw %struct.rb_condvar, ptr %13, i32 0, i32 0
  call void @ccan_list_head_init(ptr noundef %14)
  %15 = load i64, ptr %4, align 8, !tbaa !22
  call void @llvm.lifetime.end.p0(i64 8, ptr %4) #16
  call void @llvm.lifetime.end.p0(i64 8, ptr %3) #16
  ret i64 %15
}