; Function Attrs: nounwind sspstrong uwtable
define internal i64 @condvar_alloc(i64 noundef %0) #0 {
  %2 = tail call i64 @rb_data_typed_object_zalloc(i64 noundef %0, i64 noundef 24, ptr noundef nonnull @cv_data_type) #17
  %3 = inttoptr i64 %2 to ptr
  %4 = getelementptr inbounds nuw i8, ptr %3, i64 24
  %5 = load i64, ptr %4, align 8, !tbaa !170
  %6 = and i64 %5, 2
  %.not.i = icmp eq i64 %6, 0
  %7 = getelementptr i8, ptr %3, i64 32
  br i1 %.not.i, label %8, label %RTYPEDDATA_GET_DATA.exit

8:                                                ; preds = %1
  %9 = load ptr, ptr %7, align 8, !tbaa !173
  br label %RTYPEDDATA_GET_DATA.exit

RTYPEDDATA_GET_DATA.exit:                         ; preds = %1, %8
  %10 = phi ptr [ %9, %8 ], [ %7, %1 ]
  %11 = getelementptr inbounds nuw i8, ptr %10, i64 8
  store ptr %10, ptr %11, align 8, !tbaa !55
  store ptr %10, ptr %10, align 8, !tbaa !54
  ret i64 %2
}